; Function Attrs: mustprogress nounwind uwtable
define dso_local noundef i32 @_ZN4node6crypto7TLSWrap10SetCACertsEPNS0_13SecureContextE(ptr nocapture noundef nonnull readonly align 8 dereferenceable(457) %this, ptr nocapture noundef readonly %sc) local_unnamed_addr #3 align 2 {
entry:
  %ssl_ = getelementptr inbounds i8, ptr %this, i64 168
  %0 = load ptr, ptr %ssl_, align 8
  %ctx_.i = getelementptr inbounds i8, ptr %sc, i64 32
  %1 = load ptr, ptr %ctx_.i, align 8
  %call4 = tail call ptr @SSL_CTX_get_cert_store(ptr noundef %1) #23
  %call5 = tail call i64 @SSL_ctrl(ptr noundef %0, i32 noundef 106, i64 noundef 1, ptr noundef %call4) #23
  %conv = trunc i64 %call5 to i32
  %cmp.not = icmp eq i32 %conv, 1
  br i1 %cmp.not, label %if.end, label %return

if.end:                                           ; preds = %entry
  %2 = load ptr, ptr %ctx_.i, align 8
  %call8 = tail call ptr @SSL_CTX_get_client_CA_list(ptr noundef %2) #23
  %call9 = tail call ptr @SSL_dup_CA_list(ptr noundef %call8) #23
  %3 = load ptr, ptr %ssl_, align 8
  tail call void @SSL_set_client_CA_list(ptr noundef %3, ptr noundef %call9) #23
  br label %return

return:                                           ; preds = %entry, %if.end
  ret i32 %conv
}